; Function Attrs: mustprogress nofree norecurse nosync nounwind willreturn memory(read, inaccessiblemem: none) uwtable
define dso_local noundef zeroext i1 @_ZNK4llvm16TargetPassConfig19getOptimizeRegAllocEv(ptr nocapture noundef nonnull readonly align 8 dereferenceable(134) %0) local_unnamed_addr #9 align 2 {
  %2 = load i32, ptr getelementptr inbounds (i8, ptr @_ZL16OptimizeRegAlloc, i64 128), align 8
  switch i32 %2, label %10 [
    i32 0, label %3
    i32 1, label %11
    i32 2, label %9
  ]

3:                                                ; preds = %1
  %4 = getelementptr inbounds nuw i8, ptr %0, i64 112
  %5 = load ptr, ptr %4, align 8
  %6 = getelementptr inbounds nuw i8, ptr %5, i64 664
  %7 = load i32, ptr %6, align 8
  %8 = icmp ne i32 %7, 0
  br label %11

9:                                                ; preds = %1
  br label %11

10:                                               ; preds = %1
  unreachable

11:                                               ; preds = %1, %9, %3
  %.0 = phi i1 [ false, %9 ], [ %8, %3 ], [ true, %1 ]
  ret i1 %.0
}